target datalayout = "e-m:e-p270:32:32-p271:32:32-p272:64:64-i64:64-i128:128-f80:128-n8:16:32:64-S128"
target triple = "x86_64-pc-linux-gnu"

%struct.RVMapDesc = type { i8, i8, [256 x i8], [256 x i8] }
%struct.IVI45DecContext = type { %struct.GetBitContext, [9 x %struct.RVMapDesc], i32, i32, i32, i32, i32, ptr, i32, i32, i32, i8, i16, %struct.IVIPicConfig, [3 x %struct.IVIPlaneDesc], i32, i32, i32, i32, i32, %struct.IVIHuffTab, %struct.IVIHuffTab, i8, i8, i8, i8, i8, i16, i8, i32, i32, i8, i8, i8, i8, i8, ptr, ptr, ptr, ptr, ptr, i32, [4 x i32], i32, ptr, i32 }
%struct.GetBitContext = type { ptr, ptr, i32, i32, i32 }
%struct.IVIPicConfig = type { i16, i16, i16, i16, i16, i16, i8, i8 }
%struct.IVIPlaneDesc = type { i16, i16, i8, ptr }
%struct.IVIHuffTab = type { i32, ptr, %struct.IVIHuffDesc, %struct.VLC }
%struct.IVIHuffDesc = type { i32, [16 x i8] }
%struct.VLC = type { i32, ptr, i32, i32 }

; Function Attrs: nounwind uwtable
define internal void @switch_buffers(ptr noundef %0) #4 {
  %2 = alloca ptr, align 8
  %3 = alloca i32, align 4
  %4 = alloca i32, align 4
  %5 = alloca i32, align 4
  %6 = alloca i32, align 4
  %7 = alloca i32, align 4
  store ptr %0, ptr %2, align 8, !tbaa !29
  call void @llvm.lifetime.start.p0(i64 4, ptr %3) #9
  store i32 0, ptr %3, align 4, !tbaa !60
  call void @llvm.lifetime.start.p0(i64 4, ptr %4) #9
  store i32 0, ptr %4, align 4, !tbaa !60
  %8 = load ptr, ptr %2, align 8, !tbaa !29
  %9 = getelementptr inbounds nuw %struct.IVI45DecContext, ptr %8, i32 0, i32 4
  %10 = load i32, ptr %9, align 4, !tbaa !56
  switch i32 %10, label %12 [
    i32 0, label %11
    i32 1, label %11
    i32 2, label %11
  ]

11:                                               ; preds = %1, %1, %1
  store i32 1, ptr %3, align 4, !tbaa !60
  br label %12

12:                                               ; preds = %1, %11
  %13 = load ptr, ptr %2, align 8, !tbaa !29
  %14 = getelementptr inbounds nuw %struct.IVI45DecContext, ptr %13, i32 0, i32 3
  %15 = load i32, ptr %14, align 8, !tbaa !55
  switch i32 %15, label %17 [
    i32 0, label %16
    i32 1, label %16
    i32 2, label %16
  ]

16:                                               ; preds = %12, %12, %12
  store i32 1, ptr %4, align 4, !tbaa !60
  br label %17

17:                                               ; preds = %12, %16
  %18 = load i32, ptr %3, align 4, !tbaa !60
  %19 = icmp ne i32 %18, 0
  br i1 %19, label %20, label %38

20:                                               ; preds = %17
  %21 = load i32, ptr %4, align 4, !tbaa !60
  %22 = icmp ne i32 %21, 0
  br i1 %22, label %23, label %38

23:                                               ; preds = %20
  br label %24

24:                                               ; preds = %23
  call void @llvm.lifetime.start.p0(i64 4, ptr %5) #9
  %25 = load ptr, ptr %2, align 8, !tbaa !29
  %26 = getelementptr inbounds nuw %struct.IVI45DecContext, ptr %25, i32 0, i32 17
  %27 = load i32, ptr %26, align 8, !tbaa !52
  store i32 %27, ptr %5, align 4, !tbaa !60
  %28 = load ptr, ptr %2, align 8, !tbaa !29
  %29 = getelementptr inbounds nuw %struct.IVI45DecContext, ptr %28, i32 0, i32 16
  %30 = load i32, ptr %29, align 4, !tbaa !51
  %31 = load ptr, ptr %2, align 8, !tbaa !29
  %32 = getelementptr inbounds nuw %struct.IVI45DecContext, ptr %31, i32 0, i32 17
  store i32 %30, ptr %32, align 8, !tbaa !52
  %33 = load i32, ptr %5, align 4, !tbaa !60
  %34 = load ptr, ptr %2, align 8, !tbaa !29
  %35 = getelementptr inbounds nuw %struct.IVI45DecContext, ptr %34, i32 0, i32 16
  store i32 %33, ptr %35, align 4, !tbaa !51
  call void @llvm.lifetime.end.p0(i64 4, ptr %5) #9
  br label %36

36:                                               ; preds = %24
  br label %37

37:                                               ; preds = %36
  br label %71

38:                                               ; preds = %20, %17
  %39 = load i32, ptr %3, align 4, !tbaa !60
  %40 = icmp ne i32 %39, 0
  br i1 %40, label %41, label %70

41:                                               ; preds = %38
  br label %42

42:                                               ; preds = %41
  call void @llvm.lifetime.start.p0(i64 4, ptr %6) #9
  %43 = load ptr, ptr %2, align 8, !tbaa !29
  %44 = getelementptr inbounds nuw %struct.IVI45DecContext, ptr %43, i32 0, i32 19
  %45 = load i32, ptr %44, align 8, !tbaa !53
  store i32 %45, ptr %6, align 4, !tbaa !60
  %46 = load ptr, ptr %2, align 8, !tbaa !29
  %47 = getelementptr inbounds nuw %struct.IVI45DecContext, ptr %46, i32 0, i32 17
  %48 = load i32, ptr %47, align 8, !tbaa !52
  %49 = load ptr, ptr %2, align 8, !tbaa !29
  %50 = getelementptr inbounds nuw %struct.IVI45DecContext, ptr %49, i32 0, i32 19
  store i32 %48, ptr %50, align 8, !tbaa !53
  %51 = load i32, ptr %6, align 4, !tbaa !60
  %52 = load ptr, ptr %2, align 8, !tbaa !29
  %53 = getelementptr inbounds nuw %struct.IVI45DecContext, ptr %52, i32 0, i32 17
  store i32 %51, ptr %53, align 8, !tbaa !52
  call void @llvm.lifetime.end.p0(i64 4, ptr %6) #9
  br label %54

54:                                               ; preds = %42
  br label %55

55:                                               ; preds = %54
  br label %56

56:                                               ; preds = %55
  call void @llvm.lifetime.start.p0(i64 4, ptr %7) #9
  %57 = load ptr, ptr %2, align 8, !tbaa !29
  %58 = getelementptr inbounds nuw %struct.IVI45DecContext, ptr %57, i32 0, i32 17
  %59 = load i32, ptr %58, align 8, !tbaa !52
  store i32 %59, ptr %7, align 4, !tbaa !60
  %60 = load ptr, ptr %2, align 8, !tbaa !29
  %61 = getelementptr inbounds nuw %struct.IVI45DecContext, ptr %60, i32 0, i32 16
  %62 = load i32, ptr %61, align 4, !tbaa !51
  %63 = load ptr, ptr %2, align 8, !tbaa !29
  %64 = getelementptr inbounds nuw %struct.IVI45DecContext, ptr %63, i32 0, i32 17
  store i32 %62, ptr %64, align 8, !tbaa !52
  %65 = load i32, ptr %7, align 4, !tbaa !60
  %66 = load ptr, ptr %2, align 8, !tbaa !29
  %67 = getelementptr inbounds nuw %struct.IVI45DecContext, ptr %66, i32 0, i32 16
  store i32 %65, ptr %67, align 4, !tbaa !51
  call void @llvm.lifetime.end.p0(i64 4, ptr %7) #9
  br label %68

68:                                               ; preds = %56
  br label %69

69:                                               ; preds = %68
  br label %70

70:                                               ; preds = %69, %38
  br label %71

71:                                               ; preds = %70, %37
  call void @llvm.lifetime.end.p0(i64 4, ptr %4) #9
  call void @llvm.lifetime.end.p0(i64 4, ptr %3) #9
  ret void
}