; Function Attrs: mustprogress nofree norecurse nosync nounwind willreturn memory(argmem: readwrite) uwtable
define internal void @switch_buffers(ptr noundef captures(none) %0) #5 {
  %2 = getelementptr inbounds nuw i8, ptr %0, i64 4668
  %3 = load i32, ptr %2, align 4, !tbaa !56
  %switch = icmp ult i32 %3, 3
  %4 = getelementptr inbounds nuw i8, ptr %0, i64 4664
  %5 = load i32, ptr %4, align 8, !tbaa !55
  %switch21 = icmp ult i32 %5, 3
  %or.cond = and i1 %switch, %switch21
  br i1 %or.cond, label %6, label %11

6:                                                ; preds = %1
  %7 = getelementptr inbounds nuw i8, ptr %0, i64 4776
  %8 = load i32, ptr %7, align 8, !tbaa !48
  %9 = getelementptr inbounds nuw i8, ptr %0, i64 4772
  %10 = load i32, ptr %9, align 4, !tbaa !47
  store i32 %10, ptr %7, align 8, !tbaa !48
  store i32 %8, ptr %9, align 4, !tbaa !47
  br label %19

11:                                               ; preds = %1
  br i1 %switch, label %12, label %19

12:                                               ; preds = %11
  %13 = getelementptr inbounds nuw i8, ptr %0, i64 4784
  %14 = load i32, ptr %13, align 8, !tbaa !49
  %15 = getelementptr inbounds nuw i8, ptr %0, i64 4776
  %16 = load i32, ptr %15, align 8, !tbaa !48
  store i32 %16, ptr %13, align 8, !tbaa !49
  %17 = getelementptr inbounds nuw i8, ptr %0, i64 4772
  %18 = load i32, ptr %17, align 4, !tbaa !47
  store i32 %18, ptr %15, align 8, !tbaa !48
  store i32 %14, ptr %17, align 4, !tbaa !47
  br label %19

19:                                               ; preds = %11, %12, %6
  ret void
}